target datalayout = "e-m:e-p270:32:32-p271:32:32-p272:64:64-i64:64-i128:128-f80:128-n8:16:32:64-S128"
target triple = "x86_64-pc-linux-gnu"

%"struct.Gluco::Solver::WatcherDeleted" = type { ptr }
%"struct.Gluco::Solver::VarOrderLt" = type { ptr }
%"class.Gluco::Solver" = type { ptr, i32, ptr, ptr, i32, i8, ptr, i64, %"class.Gluco::vec", %"class.Gluco::vec.0", i32, %"class.Gluco::vec.1", %"class.Gluco::vec.0", i32, i32, i32, double, double, double, double, i32, i32, i32, i32, i32, i32, double, double, double, double, i32, i32, i8, i8, double, ptr, i8, i64, i64, i64, i64, i64, i64, i64, i64, i64, i64, i64, i64, i64, i64, i64, i64, i64, i64, i64, i64, i64, i64, i32, i8, double, %"class.Gluco::vec.2", double, %"class.Gluco::OccLists", %"class.Gluco::OccLists", %"class.Gluco::vec.5", %"class.Gluco::vec.5", %"class.Gluco::vec.1", %"class.Gluco::vec.4", %"class.Gluco::vec.4", %"class.Gluco::vec.0", %"class.Gluco::vec", %"class.Gluco::vec", %"class.Gluco::vec.6", i32, i32, i64, %"class.Gluco::vec.0", %"class.Gluco::Heap", double, i8, %"class.Gluco::vec.5", %"class.Gluco::vec.0", %"class.Gluco::ClauseAllocator", i32, %"class.Gluco::bqueue", %"class.Gluco::bqueue", float, i32, %"class.Gluco::vec.4", %"class.Gluco::vec.0", %"class.Gluco::vec.0", %"class.Gluco::vec.0", i32, double, double, i32, i64, i64, i8, i32, i32, double, double, i32, i32, %"class.Gluco::vec", %"class.Gluco::vec" }
%"class.Gluco::vec.2" = type { ptr, i32, i32 }
%"class.Gluco::OccLists" = type { %"class.Gluco::vec.3", %"class.Gluco::vec.4", %"class.Gluco::vec.0", %"struct.Gluco::Solver::WatcherDeleted" }
%"class.Gluco::vec.3" = type { ptr, i32, i32 }
%"class.Gluco::vec.1" = type { ptr, i32, i32 }
%"class.Gluco::vec.6" = type { ptr, i32, i32 }
%"class.Gluco::Heap" = type { %"struct.Gluco::Solver::VarOrderLt", %"class.Gluco::vec", %"class.Gluco::vec" }
%"class.Gluco::vec.5" = type { ptr, i32, i32 }
%"class.Gluco::ClauseAllocator" = type { %"class.Gluco::RegionAllocator.base", i8, [3 x i8] }
%"class.Gluco::RegionAllocator.base" = type <{ ptr, i32, i32, i32 }>
%"class.Gluco::bqueue" = type { %"class.Gluco::vec.5", i32, i32, i64, i32, i32, i8, double, double }
%"class.Gluco::vec.4" = type { ptr, i32, i32 }
%"class.Gluco::vec.0" = type { ptr, i32, i32 }
%"class.Gluco::vec" = type { ptr, i32, i32 }
%"class.Gluco::lbool" = type { i8 }

@_ZTIN5Gluco20OutOfMemoryExceptionE = linkonce_odr constant { ptr, ptr } { ptr getelementptr inbounds (ptr, ptr @_ZTVN10__cxxabiv117__class_type_infoE, i64 2), ptr @_ZTSN5Gluco20OutOfMemoryExceptionE }, comdat, align 8

; Function Attrs: mustprogress nounwind uwtable
define linkonce_odr noundef i32 @_ZN5Gluco3vecIiE4imaxEii(i32 noundef %0, i32 noundef %1) #2 comdat align 2 {
  %3 = alloca i32, align 4
  %4 = alloca i32, align 4
  %5 = alloca i32, align 4
  store i32 %0, ptr %3, align 4
  store i32 %1, ptr %4, align 4
  %6 = load i32, ptr %4, align 4
  %7 = load i32, ptr %3, align 4
  %8 = sub nsw i32 %6, %7
  %9 = ashr i32 %8, 31
  store i32 %9, ptr %5, align 4
  %10 = load i32, ptr %3, align 4
  %11 = load i32, ptr %5, align 4
  %12 = and i32 %10, %11
  %13 = load i32, ptr %4, align 4
  %14 = load i32, ptr %5, align 4
  %15 = xor i32 %14, -1
  %16 = and i32 %13, %15
  %17 = add nsw i32 %12, %16
  ret i32 %17
}

; Function Attrs: noreturn nounwind uwtable
define linkonce_odr hidden void @__clang_call_terminate(ptr noundef %0) #12 comdat {
  %2 = call ptr @__cxa_begin_catch(ptr %0) #3
  call void @_ZSt9terminatev() #18
  unreachable
}

; Function Attrs: mustprogress nounwind uwtable
define linkonce_odr void @_ZN5Gluco3vecIiE5clearEb(ptr noundef nonnull align 8 dereferenceable(16) %0, i1 noundef zeroext %1) #2 comdat align 2 {
  %3 = alloca ptr, align 8
  %4 = alloca i8, align 1
  %5 = alloca i32, align 4
  store ptr %0, ptr %3, align 8
  %6 = zext i1 %1 to i8
  store i8 %6, ptr %4, align 1
  %7 = load ptr, ptr %3, align 8
  %8 = getelementptr inbounds %"class.Gluco::vec", ptr %7, i32 0, i32 0
  %9 = load ptr, ptr %8, align 8
  %10 = icmp ne ptr %9, null
  br i1 %10, label %11, label %31

11:                                               ; preds = %2
  store i32 0, ptr %5, align 4
  br label %12

12:                                               ; preds = %18, %11
  %13 = load i32, ptr %5, align 4
  %14 = getelementptr inbounds %"class.Gluco::vec", ptr %7, i32 0, i32 1
  %15 = load i32, ptr %14, align 8
  %16 = icmp slt i32 %13, %15
  br i1 %16, label %17, label %21

17:                                               ; preds = %12
  br label %18

18:                                               ; preds = %17
  %19 = load i32, ptr %5, align 4
  %20 = add nsw i32 %19, 1
  store i32 %20, ptr %5, align 4
  br label %12, !llvm.loop !86

21:                                               ; preds = %12
  %22 = getelementptr inbounds %"class.Gluco::vec", ptr %7, i32 0, i32 1
  store i32 0, ptr %22, align 8
  %23 = load i8, ptr %4, align 1
  %24 = trunc i8 %23 to i1
  br i1 %24, label %25, label %30

25:                                               ; preds = %21
  %26 = getelementptr inbounds %"class.Gluco::vec", ptr %7, i32 0, i32 0
  %27 = load ptr, ptr %26, align 8
  call void @free(ptr noundef %27) #3
  %28 = getelementptr inbounds %"class.Gluco::vec", ptr %7, i32 0, i32 0
  store ptr null, ptr %28, align 8
  %29 = getelementptr inbounds %"class.Gluco::vec", ptr %7, i32 0, i32 2
  store i32 0, ptr %29, align 4
  br label %30

30:                                               ; preds = %25, %21
  br label %31

31:                                               ; preds = %30, %2
  ret void
}

; Function Attrs: mustprogress uwtable
define linkonce_odr void @_ZN5Gluco3vecIiE8capacityEi(ptr noundef nonnull align 8 dereferenceable(16) %0, i32 noundef %1) #1 comdat align 2 {
  %3 = alloca ptr, align 8
  %4 = alloca i32, align 4
  %5 = alloca i32, align 4
  store ptr %0, ptr %3, align 8
  store i32 %1, ptr %4, align 4
  %6 = load ptr, ptr %3, align 8
  %7 = getelementptr inbounds %"class.Gluco::vec", ptr %6, i32 0, i32 2
  %8 = load i32, ptr %7, align 4
  %9 = load i32, ptr %4, align 4
  %10 = icmp sge i32 %8, %9
  br i1 %10, label %11, label %12

11:                                               ; preds = %2
  br label %48

12:                                               ; preds = %2
  %13 = load i32, ptr %4, align 4
  %14 = getelementptr inbounds %"class.Gluco::vec", ptr %6, i32 0, i32 2
  %15 = load i32, ptr %14, align 4
  %16 = sub nsw i32 %13, %15
  %17 = add nsw i32 %16, 1
  %18 = and i32 %17, -2
  %19 = getelementptr inbounds %"class.Gluco::vec", ptr %6, i32 0, i32 2
  %20 = load i32, ptr %19, align 4
  %21 = ashr i32 %20, 1
  %22 = add nsw i32 %21, 2
  %23 = and i32 %22, -2
  %24 = call noundef i32 @_ZN5Gluco3vecIiE4imaxEii(i32 noundef %18, i32 noundef %23)
  store i32 %24, ptr %5, align 4
  %25 = load i32, ptr %5, align 4
  %26 = getelementptr inbounds %"class.Gluco::vec", ptr %6, i32 0, i32 2
  %27 = load i32, ptr %26, align 4
  %28 = sub nsw i32 2147483647, %27
  %29 = icmp sgt i32 %25, %28
  br i1 %29, label %46, label %30

30:                                               ; preds = %12
  %31 = getelementptr inbounds %"class.Gluco::vec", ptr %6, i32 0, i32 0
  %32 = load ptr, ptr %31, align 8
  %33 = load i32, ptr %5, align 4
  %34 = getelementptr inbounds %"class.Gluco::vec", ptr %6, i32 0, i32 2
  %35 = load i32, ptr %34, align 4
  %36 = add nsw i32 %35, %33
  store i32 %36, ptr %34, align 4
  %37 = sext i32 %36 to i64
  %38 = mul i64 %37, 4
  %39 = call ptr @realloc(ptr noundef %32, i64 noundef %38) #20
  %40 = getelementptr inbounds %"class.Gluco::vec", ptr %6, i32 0, i32 0
  store ptr %39, ptr %40, align 8
  %41 = icmp eq ptr %39, null
  br i1 %41, label %42, label %48

42:                                               ; preds = %30
  %43 = call ptr @__errno_location() #21
  %44 = load i32, ptr %43, align 4
  %45 = icmp eq i32 %44, 12
  br i1 %45, label %46, label %48

46:                                               ; preds = %42, %12
  %47 = call ptr @__cxa_allocate_exception(i64 1) #3
  call void @__cxa_throw(ptr %47, ptr @_ZTIN5Gluco20OutOfMemoryExceptionE, ptr null) #22
  unreachable

48:                                               ; preds = %42, %30, %11
  ret void
}

; Function Attrs: mustprogress nounwind uwtable
define linkonce_odr noundef nonnull align 1 dereferenceable(1) ptr @_ZNK5Gluco3vecINS_5lboolEEixEi(ptr noundef nonnull align 8 dereferenceable(16) %0, i32 noundef %1) #2 comdat align 2 {
  %3 = alloca ptr, align 8
  %4 = alloca i32, align 4
  store ptr %0, ptr %3, align 8
  store i32 %1, ptr %4, align 4
  %5 = load ptr, ptr %3, align 8
  %6 = getelementptr inbounds %"class.Gluco::vec.1", ptr %5, i32 0, i32 0
  %7 = load ptr, ptr %6, align 8
  %8 = load i32, ptr %4, align 4
  %9 = sext i32 %8 to i64
  %10 = getelementptr inbounds %"class.Gluco::lbool", ptr %7, i64 %9
  ret ptr %10
}

; Function Attrs: mustprogress nounwind uwtable
define linkonce_odr noundef i32 @_ZNK5Gluco3vecINS_6Solver7VarDataEE4sizeEv(ptr noundef nonnull align 8 dereferenceable(16) %0) #2 comdat align 2 {
  %2 = alloca ptr, align 8
  store ptr %0, ptr %2, align 8
  %3 = load ptr, ptr %2, align 8
  %4 = getelementptr inbounds %"class.Gluco::vec.6", ptr %3, i32 0, i32 1
  %5 = load i32, ptr %4, align 8
  ret i32 %5
}

; Function Attrs: mustprogress nounwind uwtable
define linkonce_odr void @_ZN5Gluco3vecIiED2Ev(ptr noundef nonnull align 8 dereferenceable(16) %0) unnamed_addr #2 comdat align 2 personality ptr @__gxx_personality_v0 {
  %2 = alloca ptr, align 8
  store ptr %0, ptr %2, align 8
  %3 = load ptr, ptr %2, align 8
  invoke void @_ZN5Gluco3vecIiE5clearEb(ptr noundef nonnull align 8 dereferenceable(16) %3, i1 noundef zeroext true)
          to label %4 unwind label %5

4:                                                ; preds = %1
  ret void

5:                                                ; preds = %1
  %6 = landingpad { ptr, i32 }
          catch ptr null
  %7 = extractvalue { ptr, i32 } %6, 0
  call void @__clang_call_terminate(ptr %7) #18
  unreachable
}

; Function Attrs: mustprogress uwtable
define linkonce_odr void @_ZN5Gluco3vecIiE4pushERKi(ptr noundef nonnull align 8 dereferenceable(16) %0, ptr noundef nonnull align 4 dereferenceable(4) %1) #1 comdat align 2 {
  %3 = alloca ptr, align 8
  %4 = alloca ptr, align 8
  store ptr %0, ptr %3, align 8
  store ptr %1, ptr %4, align 8
  %5 = load ptr, ptr %3, align 8
  %6 = getelementptr inbounds %"class.Gluco::vec", ptr %5, i32 0, i32 1
  %7 = load i32, ptr %6, align 8
  %8 = getelementptr inbounds %"class.Gluco::vec", ptr %5, i32 0, i32 2
  %9 = load i32, ptr %8, align 4
  %10 = icmp eq i32 %7, %9
  br i1 %10, label %11, label %15

11:                                               ; preds = %2
  %12 = getelementptr inbounds %"class.Gluco::vec", ptr %5, i32 0, i32 1
  %13 = load i32, ptr %12, align 8
  %14 = add nsw i32 %13, 1
  call void @_ZN5Gluco3vecIiE8capacityEi(ptr noundef nonnull align 8 dereferenceable(16) %5, i32 noundef %14)
  br label %15

15:                                               ; preds = %11, %2
  %16 = load ptr, ptr %4, align 8
  %17 = load i32, ptr %16, align 4
  %18 = getelementptr inbounds %"class.Gluco::vec", ptr %5, i32 0, i32 0
  %19 = load ptr, ptr %18, align 8
  %20 = getelementptr inbounds %"class.Gluco::vec", ptr %5, i32 0, i32 1
  %21 = load i32, ptr %20, align 8
  %22 = add nsw i32 %21, 1
  store i32 %22, ptr %20, align 8
  %23 = sext i32 %21 to i64
  %24 = getelementptr inbounds i32, ptr %19, i64 %23
  store i32 %17, ptr %24, align 4
  ret void
}

; Function Attrs: mustprogress nounwind uwtable
define linkonce_odr noundef zeroext i1 @_ZNK5Gluco5lbooleqES0_(ptr noundef nonnull align 1 dereferenceable(1) %0, i8 %1) #2 comdat align 2 {
  %3 = alloca %"class.Gluco::lbool", align 1
  %4 = alloca ptr, align 8
  %5 = getelementptr inbounds %"class.Gluco::lbool", ptr %3, i32 0, i32 0
  store i8 %1, ptr %5, align 1
  store ptr %0, ptr %4, align 8
  %6 = load ptr, ptr %4, align 8
  %7 = getelementptr inbounds %"class.Gluco::lbool", ptr %3, i32 0, i32 0
  %8 = load i8, ptr %7, align 1
  %9 = zext i8 %8 to i32
  %10 = and i32 %9, 2
  %11 = getelementptr inbounds %"class.Gluco::lbool", ptr %6, i32 0, i32 0
  %12 = load i8, ptr %11, align 1
  %13 = zext i8 %12 to i32
  %14 = and i32 %13, 2
  %15 = and i32 %10, %14
  %16 = getelementptr inbounds %"class.Gluco::lbool", ptr %3, i32 0, i32 0
  %17 = load i8, ptr %16, align 1
  %18 = zext i8 %17 to i32
  %19 = and i32 %18, 2
  %20 = icmp ne i32 %19, 0
  %21 = xor i1 %20, true
  %22 = zext i1 %21 to i32
  %23 = getelementptr inbounds %"class.Gluco::lbool", ptr %6, i32 0, i32 0
  %24 = load i8, ptr %23, align 1
  %25 = zext i8 %24 to i32
  %26 = getelementptr inbounds %"class.Gluco::lbool", ptr %3, i32 0, i32 0
  %27 = load i8, ptr %26, align 1
  %28 = zext i8 %27 to i32
  %29 = icmp eq i32 %25, %28
  %30 = zext i1 %29 to i32
  %31 = and i32 %22, %30
  %32 = or i32 %15, %31
  %33 = icmp ne i32 %32, 0
  ret i1 %33
}

; Function Attrs: mustprogress nounwind uwtable
define linkonce_odr void @_ZN5Gluco5lboolC2Eh(ptr noundef nonnull align 1 dereferenceable(1) %0, i8 noundef zeroext %1) unnamed_addr #2 comdat align 2 {
  %3 = alloca ptr, align 8
  %4 = alloca i8, align 1
  store ptr %0, ptr %3, align 8
  store i8 %1, ptr %4, align 1
  %5 = load ptr, ptr %3, align 8
  %6 = getelementptr inbounds %"class.Gluco::lbool", ptr %5, i32 0, i32 0
  %7 = load i8, ptr %4, align 1
  store i8 %7, ptr %6, align 1
  ret void
}

; Function Attrs: mustprogress nounwind uwtable
define linkonce_odr i8 @_ZNK5Gluco6Solver5valueEi(ptr noundef nonnull align 8 dereferenceable(1216) %0, i32 noundef %1) #2 comdat align 2 {
  %3 = alloca %"class.Gluco::lbool", align 1
  %4 = alloca ptr, align 8
  %5 = alloca i32, align 4
  store ptr %0, ptr %4, align 8
  store i32 %1, ptr %5, align 4
  %6 = load ptr, ptr %4, align 8
  %7 = getelementptr inbounds %"class.Gluco::Solver", ptr %6, i32 0, i32 68
  %8 = load i32, ptr %5, align 4
  %9 = call noundef nonnull align 1 dereferenceable(1) ptr @_ZNK5Gluco3vecINS_5lboolEEixEi(ptr noundef nonnull align 8 dereferenceable(16) %7, i32 noundef %8)
  call void @llvm.memcpy.p0.p0.i64(ptr align 1 %3, ptr align 1 %9, i64 1, i1 false)
  %10 = getelementptr inbounds %"class.Gluco::lbool", ptr %3, i32 0, i32 0
  %11 = load i8, ptr %10, align 1
  ret i8 %11
}

; Function Attrs: mustprogress nounwind uwtable
define linkonce_odr noundef nonnull align 1 dereferenceable(1) ptr @_ZN5Gluco3vecIcEixEi(ptr noundef nonnull align 8 dereferenceable(16) %0, i32 noundef %1) #2 comdat align 2 {
  %3 = alloca ptr, align 8
  %4 = alloca i32, align 4
  store ptr %0, ptr %3, align 8
  store i32 %1, ptr %4, align 4
  %5 = load ptr, ptr %3, align 8
  %6 = getelementptr inbounds %"class.Gluco::vec.4", ptr %5, i32 0, i32 0
  %7 = load ptr, ptr %6, align 8
  %8 = load i32, ptr %4, align 4
  %9 = sext i32 %8 to i64
  %10 = getelementptr inbounds i8, ptr %7, i64 %9
  ret ptr %10
}

; Function Attrs: mustprogress uwtable
define linkonce_odr noundef i32 @_ZNK5Gluco6Solver5nVarsEv(ptr noundef nonnull align 8 dereferenceable(1216) %0) #1 comdat align 2 {
  %2 = alloca ptr, align 8
  store ptr %0, ptr %2, align 8
  %3 = load ptr, ptr %2, align 8
  %4 = getelementptr inbounds %"class.Gluco::Solver", ptr %3, i32 0, i32 74
  %5 = call noundef i32 @_ZNK5Gluco3vecINS_6Solver7VarDataEE4sizeEv(ptr noundef nonnull align 8 dereferenceable(16) %4)
  ret i32 %5
}

; Function Attrs: mustprogress nounwind uwtable
define linkonce_odr void @_ZN5Gluco3vecIiEC2Ev(ptr noundef nonnull align 8 dereferenceable(16) %0) unnamed_addr #2 comdat align 2 {
  %2 = alloca ptr, align 8
  store ptr %0, ptr %2, align 8
  %3 = load ptr, ptr %2, align 8
  %4 = getelementptr inbounds %"class.Gluco::vec", ptr %3, i32 0, i32 0
  store ptr null, ptr %4, align 8
  %5 = getelementptr inbounds %"class.Gluco::vec", ptr %3, i32 0, i32 1
  store i32 0, ptr %5, align 8
  %6 = getelementptr inbounds %"class.Gluco::vec", ptr %3, i32 0, i32 2
  store i32 0, ptr %6, align 4
  ret void
}

; Function Attrs: mustprogress uwtable
define void @_ZN5Gluco6Solver16rebuildOrderHeapEv(ptr noundef nonnull align 8 dereferenceable(1216) %0) #1 align 2 personality ptr @__gxx_personality_v0 {
  %2 = alloca ptr, align 8
  %3 = alloca %"class.Gluco::vec", align 8
  %4 = alloca i32, align 4
  %5 = alloca ptr, align 8
  %6 = alloca i32, align 4
  %7 = alloca %"class.Gluco::lbool", align 1
  %8 = alloca %"class.Gluco::lbool", align 1
  store ptr %0, ptr %2, align 8
  %9 = load ptr, ptr %2, align 8
  call void @_ZN5Gluco3vecIiEC2Ev(ptr noundef nonnull align 8 dereferenceable(16) %3)
  store i32 0, ptr %4, align 4
  br label %10

10:                                               ; preds = %41, %1
  %11 = load i32, ptr %4, align 4
  %12 = invoke noundef i32 @_ZNK5Gluco6Solver5nVarsEv(ptr noundef nonnull align 8 dereferenceable(1216) %9)
          to label %13 unwind label %36

13:                                               ; preds = %10
  %14 = icmp slt i32 %11, %12
  br i1 %14, label %15, label %44

15:                                               ; preds = %13
  %16 = getelementptr inbounds %"class.Gluco::Solver", ptr %9, i32 0, i32 70
  %17 = load i32, ptr %4, align 4
  %18 = invoke noundef nonnull align 1 dereferenceable(1) ptr @_ZN5Gluco3vecIcEixEi(ptr noundef nonnull align 8 dereferenceable(16) %16, i32 noundef %17)
          to label %19 unwind label %36

19:                                               ; preds = %15
  %20 = load i8, ptr %18, align 1
  %21 = icmp ne i8 %20, 0
  br i1 %21, label %22, label %32

22:                                               ; preds = %19
  %23 = load i32, ptr %4, align 4
  %24 = invoke i8 @_ZNK5Gluco6Solver5valueEi(ptr noundef nonnull align 8 dereferenceable(1216) %9, i32 noundef %23)
          to label %25 unwind label %36

25:                                               ; preds = %22
  %26 = getelementptr inbounds %"class.Gluco::lbool", ptr %7, i32 0, i32 0
  store i8 %24, ptr %26, align 1
  invoke void @_ZN5Gluco5lboolC2Eh(ptr noundef nonnull align 1 dereferenceable(1) %8, i8 noundef zeroext 2)
          to label %27 unwind label %36

27:                                               ; preds = %25
  %28 = getelementptr inbounds %"class.Gluco::lbool", ptr %8, i32 0, i32 0
  %29 = load i8, ptr %28, align 1
  %30 = invoke noundef zeroext i1 @_ZNK5Gluco5lbooleqES0_(ptr noundef nonnull align 1 dereferenceable(1) %7, i8 %29)
          to label %31 unwind label %36

31:                                               ; preds = %27
  br label %32

32:                                               ; preds = %31, %19
  %33 = phi i1 [ false, %19 ], [ %30, %31 ]
  br i1 %33, label %34, label %40

34:                                               ; preds = %32
  invoke void @_ZN5Gluco3vecIiE4pushERKi(ptr noundef nonnull align 8 dereferenceable(16) %3, ptr noundef nonnull align 4 dereferenceable(4) %4)
          to label %35 unwind label %36

35:                                               ; preds = %34
  br label %40

36:                                               ; preds = %44, %34, %27, %25, %22, %15, %10
  %37 = landingpad { ptr, i32 }
          cleanup
  %38 = extractvalue { ptr, i32 } %37, 0
  store ptr %38, ptr %5, align 8
  %39 = extractvalue { ptr, i32 } %37, 1
  store i32 %39, ptr %6, align 4
  call void @_ZN5Gluco3vecIiED2Ev(ptr noundef nonnull align 8 dereferenceable(16) %3) #3
  br label %47

40:                                               ; preds = %35, %32
  br label %41

41:                                               ; preds = %40
  %42 = load i32, ptr %4, align 4
  %43 = add nsw i32 %42, 1
  store i32 %43, ptr %4, align 4
  br label %10, !llvm.loop !56

44:                                               ; preds = %13
  %45 = getelementptr inbounds %"class.Gluco::Solver", ptr %9, i32 0, i32 79
  invoke void @_ZN5Gluco4HeapINS_6Solver10VarOrderLtEE5buildERNS_3vecIiEE(ptr noundef nonnull align 8 dereferenceable(40) %45, ptr noundef nonnull align 8 dereferenceable(16) %3)
          to label %46 unwind label %36

46:                                               ; preds = %44
  call void @_ZN5Gluco3vecIiED2Ev(ptr noundef nonnull align 8 dereferenceable(16) %3) #3
  ret void

47:                                               ; preds = %36
  %48 = load ptr, ptr %5, align 8
  %49 = load i32, ptr %6, align 4
  %50 = insertvalue { ptr, i32 } poison, ptr %48, 0
  %51 = insertvalue { ptr, i32 } %50, i32 %49, 1
  resume { ptr, i32 } %51
}