; Function Attrs: mustprogress uwtable
define void @_ZN5Gluco6Solver16rebuildOrderHeapEv(ptr noundef nonnull align 8 dereferenceable(1216) %0) local_unnamed_addr #2 align 2 personality ptr @__gxx_personality_v0 {
  %2 = alloca %"class.Gluco::vec", align 8
  call void @llvm.memset.p0.i64(ptr noundef nonnull align 8 dereferenceable(16) %2, i8 0, i64 16, i1 false)
  %3 = getelementptr inbounds i8, ptr %0, i64 736
  %4 = load i32, ptr %3, align 8
  %5 = icmp sgt i32 %4, 0
  br i1 %5, label %.lr.ph, label %._crit_edge

.lr.ph:                                           ; preds = %1
  %6 = getelementptr inbounds i8, ptr %0, i64 664
  %7 = getelementptr inbounds i8, ptr %0, i64 632
  %8 = getelementptr inbounds i8, ptr %2, i64 8
  %9 = getelementptr inbounds i8, ptr %2, i64 12
  br label %10

10:                                               ; preds = %.lr.ph, %.critedge
  %11 = phi i32 [ %4, %.lr.ph ], [ %51, %.critedge ]
  %12 = phi ptr [ null, %.lr.ph ], [ %.pre.i13, %.critedge ]
  %13 = phi i32 [ 0, %.lr.ph ], [ %52, %.critedge ]
  %14 = phi i32 [ 0, %.lr.ph ], [ %53, %.critedge ]
  %indvars.iv = phi i64 [ 0, %.lr.ph ], [ %indvars.iv.next, %.critedge ]
  %15 = load ptr, ptr %6, align 8
  %16 = getelementptr inbounds i8, ptr %15, i64 %indvars.iv
  %17 = load i8, ptr %16, align 1
  %.not = icmp eq i8 %17, 0
  br i1 %.not, label %.critedge, label %18

18:                                               ; preds = %10
  %19 = load ptr, ptr %7, align 8
  %20 = getelementptr inbounds %"class.Gluco::lbool", ptr %19, i64 %indvars.iv
  %.sroa.0.0.copyload.i = load i8, ptr %20, align 1
  %21 = and i8 %.sroa.0.0.copyload.i, 2
  %.not9 = icmp eq i8 %21, 0
  br i1 %.not9, label %.critedge, label %22

22:                                               ; preds = %18
  %23 = icmp eq i32 %14, %13
  br i1 %23, label %24, label %_ZN5Gluco3vecIiE4pushERKi.exit

24:                                               ; preds = %22
  %25 = ashr i32 %13, 1
  %26 = and i32 %25, -2
  %27 = tail call i32 @llvm.smax.i32(i32 %26, i32 0)
  %28 = add nuw nsw i32 %27, 2
  %29 = sub nsw i32 2147483647, %13
  %30 = icmp ugt i32 %28, %29
  br i1 %30, label %.loopexit, label %31

31:                                               ; preds = %24
  %32 = add nsw i32 %28, %13
  store i32 %32, ptr %9, align 4
  %33 = sext i32 %32 to i64
  %34 = shl nsw i64 %33, 2
  %35 = tail call ptr @realloc(ptr noundef %12, i64 noundef %34) #30
  store ptr %35, ptr %2, align 8
  %36 = icmp eq ptr %35, null
  br i1 %36, label %37, label %_ZN5Gluco3vecIiE4pushERKi.exit

37:                                               ; preds = %31
  %38 = tail call ptr @__errno_location() #31
  %39 = load i32, ptr %38, align 4
  %40 = icmp eq i32 %39, 12
  tail call void @llvm.assume(i1 %40)
  br label %.loopexit

.loopexit:                                        ; preds = %24, %37
  %41 = tail call ptr @__cxa_allocate_exception(i64 1) #28
  invoke void @__cxa_throw(ptr %41, ptr nonnull @_ZTIN5Gluco20OutOfMemoryExceptionE, ptr null) #32
          to label %.noexc unwind label %47

.noexc:                                           ; preds = %.loopexit
  unreachable

_ZN5Gluco3vecIiE4pushERKi.exit:                   ; preds = %22, %31
  %.pre.i14 = phi ptr [ %35, %31 ], [ %12, %22 ]
  %42 = phi i32 [ %32, %31 ], [ %13, %22 ]
  %43 = add nsw i32 %14, 1
  store i32 %43, ptr %8, align 8
  %44 = sext i32 %14 to i64
  %45 = getelementptr inbounds i32, ptr %.pre.i14, i64 %44
  %46 = trunc i64 %indvars.iv to i32
  store i32 %46, ptr %45, align 4
  %.pre = load i32, ptr %3, align 8
  br label %.critedge

47:                                               ; preds = %.loopexit, %._crit_edge
  %48 = landingpad { ptr, i32 }
          cleanup
  %49 = load ptr, ptr %2, align 8
  %.not.i.i = icmp eq ptr %49, null
  br i1 %.not.i.i, label %_ZN5Gluco3vecIiED2Ev.exit, label %.preheader.i.i

.preheader.i.i:                                   ; preds = %47
  %50 = getelementptr inbounds i8, ptr %2, i64 8
  store i32 0, ptr %50, align 8
  call void @free(ptr noundef nonnull %49) #28
  br label %_ZN5Gluco3vecIiED2Ev.exit

_ZN5Gluco3vecIiED2Ev.exit:                        ; preds = %47, %.preheader.i.i
  resume { ptr, i32 } %48

.critedge:                                        ; preds = %_ZN5Gluco3vecIiE4pushERKi.exit, %18, %10
  %51 = phi i32 [ %.pre, %_ZN5Gluco3vecIiE4pushERKi.exit ], [ %11, %18 ], [ %11, %10 ]
  %.pre.i13 = phi ptr [ %.pre.i14, %_ZN5Gluco3vecIiE4pushERKi.exit ], [ %12, %18 ], [ %12, %10 ]
  %52 = phi i32 [ %42, %_ZN5Gluco3vecIiE4pushERKi.exit ], [ %13, %18 ], [ %13, %10 ]
  %53 = phi i32 [ %43, %_ZN5Gluco3vecIiE4pushERKi.exit ], [ %14, %18 ], [ %14, %10 ]
  %indvars.iv.next = add nuw nsw i64 %indvars.iv, 1
  %54 = sext i32 %51 to i64
  %55 = icmp slt i64 %indvars.iv.next, %54
  br i1 %55, label %10, label %._crit_edge, !llvm.loop !59

._crit_edge:                                      ; preds = %.critedge, %1
  %56 = getelementptr inbounds i8, ptr %0, i64 776
  invoke void @_ZN5Gluco4HeapINS_6Solver10VarOrderLtEE5buildERNS_3vecIiEE(ptr noundef nonnull align 8 dereferenceable(40) %56, ptr noundef nonnull align 8 dereferenceable(16) %2)
          to label %57 unwind label %47

57:                                               ; preds = %._crit_edge
  %58 = load ptr, ptr %2, align 8
  %.not.i.i2 = icmp eq ptr %58, null
  br i1 %.not.i.i2, label %_ZN5Gluco3vecIiED2Ev.exit4, label %.preheader.i.i3

.preheader.i.i3:                                  ; preds = %57
  %59 = getelementptr inbounds i8, ptr %2, i64 8
  store i32 0, ptr %59, align 8
  call void @free(ptr noundef nonnull %58) #28
  br label %_ZN5Gluco3vecIiED2Ev.exit4

_ZN5Gluco3vecIiED2Ev.exit4:                       ; preds = %57, %.preheader.i.i3
  ret void
}